target datalayout = "e-m:e-p270:32:32-p271:32:32-p272:64:64-i64:64-i128:128-f80:128-n8:16:32:64-S128"
target triple = "x86_64-pc-linux-gnu"

; Function Attrs: mustprogress nounwind uwtable
define void @_Z12ufmt_ptou_77PDsPiPva(ptr noundef %0, ptr noundef %1, ptr noundef %2, i8 noundef signext %3) #0 {
  %5 = alloca ptr, align 8
  %6 = alloca ptr, align 8
  %7 = alloca ptr, align 8
  %8 = alloca i8, align 1
  %9 = alloca i32, align 4
  %10 = alloca i32, align 4
  %11 = alloca ptr, align 8
  %12 = alloca i8, align 1
  %13 = alloca i16, align 2
  %14 = alloca i16, align 2
  store ptr %0, ptr %5, align 8, !tbaa !9
  store ptr %1, ptr %6, align 8, !tbaa !12
  store ptr %2, ptr %7, align 8, !tbaa !21
  store i8 %3, ptr %8, align 1, !tbaa !16
  call void @llvm.lifetime.start.p0(i64 4, ptr %9) #6
  call void @llvm.lifetime.start.p0(i64 4, ptr %10) #6
  store i32 0, ptr %10, align 4, !tbaa !7
  call void @llvm.lifetime.start.p0(i64 8, ptr %11) #6
  store ptr %7, ptr %11, align 8, !tbaa !22
  store i32 7, ptr %9, align 4, !tbaa !7
  br label %15

15:                                               ; preds = %113, %4
  %16 = load i32, ptr %9, align 4, !tbaa !7
  %17 = icmp sge i32 %16, 0
  br i1 %17, label %18, label %116

18:                                               ; preds = %15
  call void @llvm.lifetime.start.p0(i64 1, ptr %12) #6
  %19 = load ptr, ptr %11, align 8, !tbaa !22
  %20 = load i32, ptr %9, align 4, !tbaa !7
  %21 = sext i32 %20 to i64
  %22 = getelementptr inbounds i8, ptr %19, i64 %21
  %23 = load i8, ptr %22, align 1, !tbaa !16
  store i8 %23, ptr %12, align 1, !tbaa !16
  call void @llvm.lifetime.start.p0(i64 2, ptr %13) #6
  %24 = load i8, ptr %12, align 1, !tbaa !16
  %25 = zext i8 %24 to i32
  %26 = ashr i32 %25, 4
  %27 = trunc i32 %26 to i16
  store i16 %27, ptr %13, align 2, !tbaa !24
  call void @llvm.lifetime.start.p0(i64 2, ptr %14) #6
  %28 = load i8, ptr %12, align 1, !tbaa !16
  %29 = zext i8 %28 to i32
  %30 = and i32 %29, 15
  %31 = trunc i32 %30 to i16
  store i16 %31, ptr %14, align 2, !tbaa !24
  %32 = load i8, ptr %8, align 1, !tbaa !16
  %33 = icmp ne i8 %32, 0
  br i1 %33, label %34, label %73

34:                                               ; preds = %18
  %35 = load i16, ptr %13, align 2, !tbaa !24
  %36 = zext i16 %35 to i32
  %37 = icmp sle i32 %36, 9
  br i1 %37, label %38, label %42

38:                                               ; preds = %34
  %39 = load i16, ptr %13, align 2, !tbaa !24
  %40 = zext i16 %39 to i32
  %41 = add nsw i32 48, %40
  br label %46

42:                                               ; preds = %34
  %43 = load i16, ptr %13, align 2, !tbaa !24
  %44 = zext i16 %43 to i32
  %45 = add nsw i32 87, %44
  br label %46

46:                                               ; preds = %42, %38
  %47 = phi i32 [ %41, %38 ], [ %45, %42 ]
  %48 = trunc i32 %47 to i16
  %49 = load ptr, ptr %5, align 8, !tbaa !9
  %50 = load i32, ptr %10, align 4, !tbaa !7
  %51 = add nsw i32 %50, 1
  store i32 %51, ptr %10, align 4, !tbaa !7
  %52 = sext i32 %50 to i64
  %53 = getelementptr inbounds i16, ptr %49, i64 %52
  store i16 %48, ptr %53, align 2, !tbaa !3
  %54 = load i16, ptr %14, align 2, !tbaa !24
  %55 = zext i16 %54 to i32
  %56 = icmp sle i32 %55, 9
  br i1 %56, label %57, label %61

57:                                               ; preds = %46
  %58 = load i16, ptr %14, align 2, !tbaa !24
  %59 = zext i16 %58 to i32
  %60 = add nsw i32 48, %59
  br label %65

61:                                               ; preds = %46
  %62 = load i16, ptr %14, align 2, !tbaa !24
  %63 = zext i16 %62 to i32
  %64 = add nsw i32 87, %63
  br label %65

65:                                               ; preds = %61, %57
  %66 = phi i32 [ %60, %57 ], [ %64, %61 ]
  %67 = trunc i32 %66 to i16
  %68 = load ptr, ptr %5, align 8, !tbaa !9
  %69 = load i32, ptr %10, align 4, !tbaa !7
  %70 = add nsw i32 %69, 1
  store i32 %70, ptr %10, align 4, !tbaa !7
  %71 = sext i32 %69 to i64
  %72 = getelementptr inbounds i16, ptr %68, i64 %71
  store i16 %67, ptr %72, align 2, !tbaa !3
  br label %112

73:                                               ; preds = %18
  %74 = load i16, ptr %13, align 2, !tbaa !24
  %75 = zext i16 %74 to i32
  %76 = icmp sle i32 %75, 9
  br i1 %76, label %77, label %81

77:                                               ; preds = %73
  %78 = load i16, ptr %13, align 2, !tbaa !24
  %79 = zext i16 %78 to i32
  %80 = add nsw i32 48, %79
  br label %85

81:                                               ; preds = %73
  %82 = load i16, ptr %13, align 2, !tbaa !24
  %83 = zext i16 %82 to i32
  %84 = add nsw i32 55, %83
  br label %85

85:                                               ; preds = %81, %77
  %86 = phi i32 [ %80, %77 ], [ %84, %81 ]
  %87 = trunc i32 %86 to i16
  %88 = load ptr, ptr %5, align 8, !tbaa !9
  %89 = load i32, ptr %10, align 4, !tbaa !7
  %90 = add nsw i32 %89, 1
  store i32 %90, ptr %10, align 4, !tbaa !7
  %91 = sext i32 %89 to i64
  %92 = getelementptr inbounds i16, ptr %88, i64 %91
  store i16 %87, ptr %92, align 2, !tbaa !3
  %93 = load i16, ptr %14, align 2, !tbaa !24
  %94 = zext i16 %93 to i32
  %95 = icmp sle i32 %94, 9
  br i1 %95, label %96, label %100

96:                                               ; preds = %85
  %97 = load i16, ptr %14, align 2, !tbaa !24
  %98 = zext i16 %97 to i32
  %99 = add nsw i32 48, %98
  br label %104

100:                                              ; preds = %85
  %101 = load i16, ptr %14, align 2, !tbaa !24
  %102 = zext i16 %101 to i32
  %103 = add nsw i32 55, %102
  br label %104

104:                                              ; preds = %100, %96
  %105 = phi i32 [ %99, %96 ], [ %103, %100 ]
  %106 = trunc i32 %105 to i16
  %107 = load ptr, ptr %5, align 8, !tbaa !9
  %108 = load i32, ptr %10, align 4, !tbaa !7
  %109 = add nsw i32 %108, 1
  store i32 %109, ptr %10, align 4, !tbaa !7
  %110 = sext i32 %108 to i64
  %111 = getelementptr inbounds i16, ptr %107, i64 %110
  store i16 %106, ptr %111, align 2, !tbaa !3
  br label %112

112:                                              ; preds = %104, %65
  call void @llvm.lifetime.end.p0(i64 2, ptr %14) #6
  call void @llvm.lifetime.end.p0(i64 2, ptr %13) #6
  call void @llvm.lifetime.end.p0(i64 1, ptr %12) #6
  br label %113

113:                                              ; preds = %112
  %114 = load i32, ptr %9, align 4, !tbaa !7
  %115 = add nsw i32 %114, -1
  store i32 %115, ptr %9, align 4, !tbaa !7
  br label %15, !llvm.loop !26

116:                                              ; preds = %15
  %117 = load i32, ptr %10, align 4, !tbaa !7
  %118 = load ptr, ptr %6, align 8, !tbaa !12
  store i32 %117, ptr %118, align 4, !tbaa !7
  call void @llvm.lifetime.end.p0(i64 8, ptr %11) #6
  call void @llvm.lifetime.end.p0(i64 4, ptr %10) #6
  call void @llvm.lifetime.end.p0(i64 4, ptr %9) #6
  ret void
}