; Function Attrs: mustprogress nofree norecurse nosync nounwind memory(argmem: write) uwtable
define void @_Z12ufmt_ptou_77PDsPiPva(ptr noundef writeonly captures(none) %0, ptr noundef writeonly captures(none) %1, ptr noundef %2, i8 noundef signext %3) local_unnamed_addr #3 {
  %5 = alloca ptr, align 8
  store ptr %2, ptr %5, align 8, !tbaa !13
  %.not = icmp eq i8 %3, 0
  br i1 %.not, label %.split.us, label %.split

.split.us:                                        ; preds = %4, %.split.us
  %indvars.iv41 = phi i64 [ %indvars.iv.next42, %.split.us ], [ 0, %4 ]
  %indvars.iv39 = phi i64 [ %indvars.iv.next40, %.split.us ], [ 7, %4 ]
  %6 = getelementptr inbounds nuw i8, ptr %5, i64 %indvars.iv39
  %7 = load i8, ptr %6, align 1, !tbaa !15
  %8 = lshr i8 %7, 4
  %9 = and i8 %7, 15
  %10 = zext nneg i8 %8 to i16
  %11 = icmp ult i8 %7, -96
  %12 = or disjoint i16 %10, 48
  %13 = add nuw nsw i16 %10, 55
  %14 = select i1 %11, i16 %12, i16 %13
  %15 = getelementptr inbounds nuw i16, ptr %0, i64 %indvars.iv41
  store i16 %14, ptr %15, align 2, !tbaa !3
  %16 = zext nneg i8 %9 to i16
  %17 = icmp samesign ult i8 %9, 10
  %18 = or disjoint i16 %16, 48
  %19 = add nuw nsw i16 %16, 55
  %20 = select i1 %17, i16 %18, i16 %19
  %21 = getelementptr i8, ptr %15, i64 2
  store i16 %20, ptr %21, align 2, !tbaa !3
  %indvars.iv.next42 = add nuw nsw i64 %indvars.iv41, 2
  %indvars.iv.next40 = add nsw i64 %indvars.iv39, -1
  %.not47 = icmp eq i64 %indvars.iv39, 0
  br i1 %.not47, label %.split32.us, label %.split.us, !llvm.loop !16

.split:                                           ; preds = %4, %.split
  %indvars.iv34 = phi i64 [ %indvars.iv.next35, %.split ], [ 0, %4 ]
  %indvars.iv = phi i64 [ %indvars.iv.next, %.split ], [ 7, %4 ]
  %22 = getelementptr inbounds nuw i8, ptr %5, i64 %indvars.iv
  %23 = load i8, ptr %22, align 1, !tbaa !15
  %24 = lshr i8 %23, 4
  %25 = and i8 %23, 15
  %26 = zext nneg i8 %24 to i16
  %27 = icmp ult i8 %23, -96
  %28 = or disjoint i16 %26, 48
  %29 = add nuw nsw i16 %26, 87
  %30 = select i1 %27, i16 %28, i16 %29
  %31 = getelementptr inbounds nuw i16, ptr %0, i64 %indvars.iv34
  store i16 %30, ptr %31, align 2, !tbaa !3
  %32 = zext nneg i8 %25 to i16
  %33 = icmp samesign ult i8 %25, 10
  %34 = or disjoint i16 %32, 48
  %35 = add nuw nsw i16 %32, 87
  %36 = select i1 %33, i16 %34, i16 %35
  %37 = getelementptr i8, ptr %31, i64 2
  store i16 %36, ptr %37, align 2, !tbaa !3
  %indvars.iv.next35 = add nuw nsw i64 %indvars.iv34, 2
  %indvars.iv.next = add nsw i64 %indvars.iv, -1
  %.not46 = icmp eq i64 %indvars.iv, 0
  br i1 %.not46, label %.split32.us, label %.split, !llvm.loop !16

.split32.us:                                      ; preds = %.split, %.split.us
  store i32 16, ptr %1, align 4, !tbaa !9
  ret void
}